; Function Attrs: mustprogress uwtable
define hidden void @_ZN7datalog8rule_set9add_rulesERKS0_(ptr noundef nonnull align 8 dereferenceable(248) %0, ptr noundef nonnull readonly align 8 captures(none) dereferenceable(248) %1) local_unnamed_addr #3 align 2 {
  %3 = getelementptr inbounds nuw i8, ptr %1, i64 24
  %4 = load ptr, ptr %3, align 8, !tbaa !80
  %5 = icmp eq ptr %4, null
  br i1 %5, label %._crit_edge, label %_ZNK7datalog8rule_set13get_num_rulesEv.exit

_ZNK7datalog8rule_set13get_num_rulesEv.exit:      ; preds = %2
  %6 = getelementptr inbounds i8, ptr %4, i64 -4
  %7 = load i32, ptr %6, align 4, !tbaa !83
  %.not = icmp eq i32 %7, 0
  br i1 %.not, label %._crit_edge, label %.lr.ph.preheader

.lr.ph.preheader:                                 ; preds = %_ZNK7datalog8rule_set13get_num_rulesEv.exit
  %wide.trip.count = zext i32 %7 to i64
  br label %.lr.ph

._crit_edge:                                      ; preds = %.lr.ph, %2, %_ZNK7datalog8rule_set13get_num_rulesEv.exit
  tail call void @_ZN7datalog8rule_set18inherit_predicatesERKS0_(ptr noundef nonnull align 8 dereferenceable(248) %0, ptr noundef nonnull align 8 dereferenceable(248) %1)
  ret void

.lr.ph:                                           ; preds = %.lr.ph.preheader, %.lr.ph
  %indvars.iv = phi i64 [ 0, %.lr.ph.preheader ], [ %indvars.iv.next, %.lr.ph ]
  %8 = load ptr, ptr %3, align 8, !tbaa !80
  %9 = getelementptr inbounds nuw ptr, ptr %8, i64 %indvars.iv
  %10 = load ptr, ptr %9, align 8, !tbaa !84
  tail call void @_ZN7datalog8rule_set8add_ruleEPNS_4ruleE(ptr noundef nonnull align 8 dereferenceable(248) %0, ptr noundef %10)
  %indvars.iv.next = add nuw nsw i64 %indvars.iv, 1
  %exitcond.not = icmp eq i64 %indvars.iv.next, %wide.trip.count
  br i1 %exitcond.not, label %._crit_edge, label %.lr.ph, !llvm.loop !327
}